; Function Attrs: nounwind uwtable
define internal ptr @_testmultiphase_StateAccessType_get_count(ptr readnone captures(none) %0, ptr noundef %1, ptr readnone captures(none) %2, i64 noundef %3, ptr noundef readonly %4) #0 {
  %.not = icmp eq i64 %3, 0
  br i1 %.not, label %6, label %9

6:                                                ; preds = %5
  %.not6 = icmp eq ptr %4, null
  br i1 %.not6, label %11, label %7

7:                                                ; preds = %6
  %8 = getelementptr i8, ptr %4, i64 16
  %.val = load i64, ptr %8, align 8, !tbaa !28
  %.not7 = icmp eq i64 %.val, 0
  br i1 %.not7, label %11, label %9

9:                                                ; preds = %7, %5
  %10 = load ptr, ptr @PyExc_TypeError, align 8, !tbaa !3
  tail call void @PyErr_SetString(ptr noundef %10, ptr noundef nonnull @.str.97) #4
  br label %16

11:                                               ; preds = %7, %6
  %12 = tail call ptr @PyType_GetModuleState(ptr noundef %1) #4
  %13 = load i32, ptr %12, align 4, !tbaa !29
  %14 = sext i32 %13 to i64
  %15 = tail call ptr @PyLong_FromLong(i64 noundef %14) #4
  br label %16

16:                                               ; preds = %11, %9
  %.0 = phi ptr [ null, %9 ], [ %15, %11 ]
  ret ptr %.0
}